; Function Attrs: nounwind uwtable
define void @lv_layer_init(ptr noundef %0) local_unnamed_addr #1 {
  %.not = icmp eq ptr %0, null
  br i1 %.not, label %.preheader, label %lv_layer_reset.exit

.preheader:                                       ; preds = %1, %.preheader
  br label %.preheader

lv_layer_reset.exit:                              ; preds = %1
  tail call void @lv_memset(ptr noundef nonnull %0, i8 noundef zeroext 0, i64 noundef 112) #11
  %2 = getelementptr inbounds nuw i8, ptr %0, i64 60
  store i8 -1, ptr %2, align 4, !tbaa !107
  ret void
}